target datalayout = "e-m:e-p270:32:32-p271:32:32-p272:64:64-i64:64-i128:128-f80:128-n8:16:32:64-S128"
target triple = "x86_64-pc-linux-gnu"

%struct.expert_field = type { i32, i32 }
%struct._asn1_ctx_t = type { i32, i32, i8, ptr, ptr, ptr, ptr, ptr, %struct.anon, %struct.anon.2, %struct.anon.3, ptr }
%struct.anon = type { i32, i8, i8, i8, ptr, ptr, i32, i32, ptr, ptr, ptr, %union.anon }
%union.anon = type { %struct.anon.0 }
%struct.anon.0 = type { ptr }
%struct.anon.2 = type { ptr, ptr, ptr }
%struct.anon.3 = type { i32, i8, ptr, i32, i32, ptr, ptr, ptr, %union.anon.4 }
%union.anon.4 = type { %struct.anon.5 }
%struct.anon.5 = type { ptr }
%struct._packet_info = type { ptr, ptr, i32, i32, %struct.nstime_t, %struct.nstime_t, %struct.nstime_t, i8, ptr, ptr, ptr, ptr, %struct._address, %struct._address, %struct._address, %struct._address, %struct._address, %struct._address, i32, ptr, i8, [3 x i8], %struct.anon.7, i32, i32, i32, i32, ptr, i8, ptr, ptr, i16, i16, i32, i32, i16, i32, i32, ptr, ptr, ptr, i8, i8, i16, i16, i16, i32, i16, i16, ptr, ptr, ptr, ptr, ptr, i32, i32 }
%struct.nstime_t = type { i64, i32 }
%struct._address = type { i32, i32, ptr, ptr }
%struct.anon.7 = type { i8, [3 x i8] }
%struct.p1_address_ctx = type { i8, ptr, i8, ptr }
%struct.SESSION_DATA_STRUCTURE = type { i8, i8, i8, i32, i8 }

@proto_p1 = internal global i32 0, align 4
@ett_p1 = internal global i32 0, align 4
@.str.113 = private unnamed_addr constant [3 x i8] c"P1\00", align 1
@.str.114 = private unnamed_addr constant [9 x i8] c"Transfer\00", align 1
@hf_p1_MTS_APDU_PDU = internal global i32 0, align 4
@hf_p1_MTABindArgument_PDU = internal global i32 0, align 4
@hf_p1_MTABindResult_PDU = internal global i32 0, align 4
@hf_p1_MTABindError_PDU = internal global i32 0, align 4
@ei_p1_unsupported_pdu = internal global %struct.expert_field zeroinitializer, align 4
@ei_p1_zero_pdu = internal global %struct.expert_field zeroinitializer, align 4
@.str.1926 = private unnamed_addr constant [14 x i8] c"Bind-Argument\00", align 1
@.str.1927 = private unnamed_addr constant [12 x i8] c"Bind-Result\00", align 1
@.str.1928 = private unnamed_addr constant [11 x i8] c"Bind-Error\00", align 1

; Function Attrs: null_pointer_is_valid sspstrong uwtable
define hidden void @p1_initialize_content_globals(ptr noundef %0, ptr noundef %1, i1 noundef zeroext %2) #0 {
  %4 = alloca ptr, align 8
  %5 = alloca ptr, align 8
  %6 = alloca i8, align 1
  %7 = alloca ptr, align 8
  store ptr %0, ptr %4, align 8
  store ptr %1, ptr %5, align 8
  %8 = zext i1 %2 to i8
  store i8 %8, ptr %6, align 1
  call void @llvm.lifetime.start.p0(i64 8, ptr %7) #5
  %9 = load ptr, ptr %4, align 8
  %10 = getelementptr inbounds nuw %struct._asn1_ctx_t, ptr %9, i32 0, i32 9
  %11 = getelementptr inbounds nuw %struct.anon.2, ptr %10, i32 0, i32 2
  %12 = load ptr, ptr %11, align 8
  %13 = icmp eq ptr %12, null
  br i1 %13, label %14, label %24

14:                                               ; preds = %3
  %15 = load ptr, ptr %4, align 8
  %16 = getelementptr inbounds nuw %struct._asn1_ctx_t, ptr %15, i32 0, i32 3
  %17 = load ptr, ptr %16, align 8
  %18 = getelementptr inbounds nuw %struct._packet_info, ptr %17, i32 0, i32 51
  %19 = load ptr, ptr %18, align 8
  %20 = call noalias ptr @wmem_alloc0(ptr noundef %19, i64 noundef 32) #6
  %21 = load ptr, ptr %4, align 8
  %22 = getelementptr inbounds nuw %struct._asn1_ctx_t, ptr %21, i32 0, i32 9
  %23 = getelementptr inbounds nuw %struct.anon.2, ptr %22, i32 0, i32 2
  store ptr %20, ptr %23, align 8
  br label %24

24:                                               ; preds = %14, %3
  %25 = load ptr, ptr %4, align 8
  %26 = getelementptr inbounds nuw %struct._asn1_ctx_t, ptr %25, i32 0, i32 9
  %27 = getelementptr inbounds nuw %struct.anon.2, ptr %26, i32 0, i32 2
  %28 = load ptr, ptr %27, align 8
  store ptr %28, ptr %7, align 8
  %29 = load ptr, ptr %5, align 8
  %30 = load ptr, ptr %4, align 8
  %31 = getelementptr inbounds nuw %struct._asn1_ctx_t, ptr %30, i32 0, i32 9
  %32 = getelementptr inbounds nuw %struct.anon.2, ptr %31, i32 0, i32 1
  store ptr %29, ptr %32, align 8
  %33 = load ptr, ptr %4, align 8
  %34 = getelementptr inbounds nuw %struct._asn1_ctx_t, ptr %33, i32 0, i32 8
  %35 = getelementptr inbounds nuw %struct.anon, ptr %34, i32 0, i32 5
  store ptr null, ptr %35, align 8
  %36 = load ptr, ptr %7, align 8
  %37 = getelementptr inbounds nuw %struct.p1_address_ctx, ptr %36, i32 0, i32 1
  store ptr null, ptr %37, align 8
  %38 = load i8, ptr %6, align 1, !range !6, !noundef !7
  %39 = trunc i8 %38 to i1
  %40 = load ptr, ptr %7, align 8
  %41 = getelementptr inbounds nuw %struct.p1_address_ctx, ptr %40, i32 0, i32 2
  %42 = zext i1 %39 to i8
  store i8 %42, ptr %41, align 8
  call void @llvm.lifetime.end.p0(i64 8, ptr %7) #5
  ret void
}

; Function Attrs: null_pointer_is_valid sspstrong uwtable
define internal i32 @dissect_p1(ptr noundef %0, ptr noundef %1, ptr noundef %2, ptr noundef %3) #0 {
  %5 = alloca i32, align 4
  %6 = alloca ptr, align 8
  %7 = alloca ptr, align 8
  %8 = alloca ptr, align 8
  %9 = alloca ptr, align 8
  %10 = alloca i32, align 4
  %11 = alloca i32, align 4
  %12 = alloca ptr, align 8
  %13 = alloca ptr, align 8
  %14 = alloca ptr, align 8
  %15 = alloca ptr, align 8
  %16 = alloca ptr, align 8
  %17 = alloca i32, align 4
  %18 = alloca %struct._asn1_ctx_t, align 8
  %19 = alloca i32, align 4
  store ptr %0, ptr %6, align 8
  store ptr %1, ptr %7, align 8
  store ptr %2, ptr %8, align 8
  store ptr %3, ptr %9, align 8
  call void @llvm.lifetime.start.p0(i64 4, ptr %10) #5
  store i32 0, ptr %10, align 4
  call void @llvm.lifetime.start.p0(i64 4, ptr %11) #5
  call void @llvm.lifetime.start.p0(i64 8, ptr %12) #5
  call void @llvm.lifetime.start.p0(i64 8, ptr %13) #5
  call void @llvm.lifetime.start.p0(i64 8, ptr %14) #5
  call void @llvm.lifetime.start.p0(i64 8, ptr %15) #5
  store ptr null, ptr %15, align 8
  call void @llvm.lifetime.start.p0(i64 8, ptr %16) #5
  call void @llvm.lifetime.start.p0(i64 4, ptr %17) #5
  store i32 0, ptr %17, align 4
  call void @llvm.lifetime.start.p0(i64 208, ptr %18) #5
  %20 = load ptr, ptr %7, align 8
  call void @asn1_ctx_init(ptr noundef %18, i32 noundef 0, i1 noundef zeroext true, ptr noundef %20)
  %21 = load ptr, ptr %9, align 8
  %22 = icmp eq ptr %21, null
  br i1 %22, label %23, label %24

23:                                               ; preds = %4
  store i32 0, ptr %5, align 4
  store i32 1, ptr %19, align 4
  br label %93

24:                                               ; preds = %4
  %25 = load ptr, ptr %9, align 8
  store ptr %25, ptr %14, align 8
  %26 = load ptr, ptr %8, align 8
  call void @p1_initialize_content_globals(ptr noundef %18, ptr noundef %26, i1 noundef zeroext true)
  %27 = load ptr, ptr %14, align 8
  %28 = getelementptr inbounds nuw %struct._asn1_ctx_t, ptr %18, i32 0, i32 7
  store ptr %27, ptr %28, align 8
  %29 = load ptr, ptr %8, align 8
  %30 = load i32, ptr @proto_p1, align 4
  %31 = load ptr, ptr %6, align 8
  %32 = call ptr @proto_tree_add_item(ptr noundef %29, i32 noundef %30, ptr noundef %31, i32 noundef 0, i32 noundef -1, i32 noundef 0)
  store ptr %32, ptr %12, align 8
  %33 = load ptr, ptr %12, align 8
  %34 = load i32, ptr @ett_p1, align 4
  %35 = call ptr @proto_item_add_subtree(ptr noundef %33, i32 noundef %34)
  store ptr %35, ptr %13, align 8
  %36 = load ptr, ptr %7, align 8
  %37 = getelementptr inbounds nuw %struct._packet_info, ptr %36, i32 0, i32 1
  %38 = load ptr, ptr %37, align 8
  call void @col_set_str(ptr noundef %38, i32 noundef 35, ptr noundef @.str.113)
  %39 = load ptr, ptr %7, align 8
  %40 = getelementptr inbounds nuw %struct._packet_info, ptr %39, i32 0, i32 1
  %41 = load ptr, ptr %40, align 8
  call void @col_clear(ptr noundef %41, i32 noundef 25)
  %42 = load ptr, ptr %14, align 8
  %43 = getelementptr inbounds nuw %struct.SESSION_DATA_STRUCTURE, ptr %42, i32 0, i32 3
  %44 = load i32, ptr %43, align 4
  %45 = and i32 %44, -16777216
  switch i32 %45, label %54 [
    i32 285212672, label %46
    i32 553648128, label %48
    i32 822083584, label %50
    i32 318767104, label %52
  ]

46:                                               ; preds = %24
  store ptr @dissect_p1_MTABindArgument, ptr %15, align 8
  store ptr @.str.1926, ptr %16, align 8
  %47 = load i32, ptr @hf_p1_MTABindArgument_PDU, align 4
  store i32 %47, ptr %17, align 4
  br label %62

48:                                               ; preds = %24
  store ptr @dissect_p1_MTABindResult, ptr %15, align 8
  store ptr @.str.1927, ptr %16, align 8
  %49 = load i32, ptr @hf_p1_MTABindResult_PDU, align 4
  store i32 %49, ptr %17, align 4
  br label %62

50:                                               ; preds = %24
  store ptr @dissect_p1_MTABindError, ptr %15, align 8
  store ptr @.str.1928, ptr %16, align 8
  %51 = load i32, ptr @hf_p1_MTABindError_PDU, align 4
  store i32 %51, ptr %17, align 4
  br label %62

52:                                               ; preds = %24
  store ptr @dissect_p1_MTS_APDU, ptr %15, align 8
  store ptr @.str.114, ptr %16, align 8
  %53 = load i32, ptr @hf_p1_MTS_APDU_PDU, align 4
  store i32 %53, ptr %17, align 4
  br label %62

54:                                               ; preds = %24
  %55 = load ptr, ptr %13, align 8
  %56 = load ptr, ptr %7, align 8
  %57 = load ptr, ptr %6, align 8
  %58 = load i32, ptr %10, align 4
  %59 = call ptr @proto_tree_add_expert(ptr noundef %55, ptr noundef %56, ptr noundef @ei_p1_unsupported_pdu, ptr noundef %57, i32 noundef %58, i32 noundef -1)
  %60 = load ptr, ptr %6, align 8
  %61 = call i32 @tvb_captured_length(ptr noundef %60)
  store i32 %61, ptr %5, align 4
  store i32 1, ptr %19, align 4
  br label %93

62:                                               ; preds = %52, %50, %48, %46
  %63 = load ptr, ptr %7, align 8
  %64 = getelementptr inbounds nuw %struct._packet_info, ptr %63, i32 0, i32 1
  %65 = load ptr, ptr %64, align 8
  %66 = load ptr, ptr %16, align 8
  call void @col_set_str(ptr noundef %65, i32 noundef 25, ptr noundef %66)
  br label %67

67:                                               ; preds = %89, %62
  %68 = load ptr, ptr %6, align 8
  %69 = load i32, ptr %10, align 4
  %70 = call i32 @tvb_reported_length_remaining(ptr noundef %68, i32 noundef %69)
  %71 = icmp sgt i32 %70, 0
  br i1 %71, label %72, label %90

72:                                               ; preds = %67
  %73 = load i32, ptr %10, align 4
  store i32 %73, ptr %11, align 4
  %74 = load ptr, ptr %15, align 8
  %75 = load ptr, ptr %6, align 8
  %76 = load i32, ptr %10, align 4
  %77 = load ptr, ptr %13, align 8
  %78 = load i32, ptr %17, align 4
  %79 = call i32 %74(i1 noundef zeroext false, ptr noundef %75, i32 noundef %76, ptr noundef %18, ptr noundef %77, i32 noundef %78)
  store i32 %79, ptr %10, align 4
  %80 = load i32, ptr %10, align 4
  %81 = load i32, ptr %11, align 4
  %82 = icmp eq i32 %80, %81
  br i1 %82, label %83, label %89

83:                                               ; preds = %72
  %84 = load ptr, ptr %13, align 8
  %85 = load ptr, ptr %7, align 8
  %86 = load ptr, ptr %6, align 8
  %87 = load i32, ptr %10, align 4
  %88 = call ptr @proto_tree_add_expert(ptr noundef %84, ptr noundef %85, ptr noundef @ei_p1_zero_pdu, ptr noundef %86, i32 noundef %87, i32 noundef -1)
  br label %90

89:                                               ; preds = %72
  br label %67, !llvm.loop !8

90:                                               ; preds = %83, %67
  call void @p1_initialize_content_globals(ptr noundef %18, ptr noundef null, i1 noundef zeroext false)
  %91 = load ptr, ptr %6, align 8
  %92 = call i32 @tvb_captured_length(ptr noundef %91)
  store i32 %92, ptr %5, align 4
  store i32 1, ptr %19, align 4
  br label %93

93:                                               ; preds = %90, %54, %23
  call void @llvm.lifetime.end.p0(i64 208, ptr %18) #5
  call void @llvm.lifetime.end.p0(i64 4, ptr %17) #5
  call void @llvm.lifetime.end.p0(i64 8, ptr %16) #5
  call void @llvm.lifetime.end.p0(i64 8, ptr %15) #5
  call void @llvm.lifetime.end.p0(i64 8, ptr %14) #5
  call void @llvm.lifetime.end.p0(i64 8, ptr %13) #5
  call void @llvm.lifetime.end.p0(i64 8, ptr %12) #5
  call void @llvm.lifetime.end.p0(i64 4, ptr %11) #5
  call void @llvm.lifetime.end.p0(i64 4, ptr %10) #5
  %94 = load i32, ptr %5, align 4
  ret i32 %94
}