; Function Attrs: null_pointer_is_valid sspstrong uwtable
define internal i32 @dissect_p1(ptr noundef %0, ptr noundef %1, ptr noundef %2, ptr noundef %3) #0 {
  %5 = alloca %struct._asn1_ctx_t, align 8
  call void @llvm.lifetime.start.p0(i64 208, ptr nonnull %5) #5
  call void @asn1_ctx_init(ptr noundef nonnull %5, i32 noundef 0, i1 noundef zeroext true, ptr noundef %1)
  %6 = icmp eq ptr %3, null
  br i1 %6, label %60, label %7

7:                                                ; preds = %4
  %8 = getelementptr inbounds nuw i8, ptr %5, i64 136
  %9 = load ptr, ptr %8, align 8
  %10 = icmp eq ptr %9, null
  br i1 %10, label %11, label %p1_initialize_content_globals.exit

11:                                               ; preds = %7
  %12 = getelementptr inbounds nuw i8, ptr %5, i64 16
  %13 = load ptr, ptr %12, align 8
  %14 = getelementptr inbounds nuw i8, ptr %13, i64 408
  %15 = load ptr, ptr %14, align 8
  %16 = call noalias dereferenceable_or_null(32) ptr @wmem_alloc0(ptr noundef %15, i64 noundef 32) #6
  store ptr %16, ptr %8, align 8
  br label %p1_initialize_content_globals.exit

p1_initialize_content_globals.exit:               ; preds = %7, %11
  %17 = phi ptr [ %16, %11 ], [ %9, %7 ]
  %18 = getelementptr inbounds nuw i8, ptr %5, i64 128
  store ptr %2, ptr %18, align 8
  %19 = getelementptr inbounds nuw i8, ptr %5, i64 72
  store ptr null, ptr %19, align 8
  %20 = getelementptr inbounds nuw i8, ptr %17, i64 8
  store ptr null, ptr %20, align 8
  %21 = getelementptr inbounds nuw i8, ptr %17, i64 16
  store i8 1, ptr %21, align 8
  %22 = getelementptr inbounds nuw i8, ptr %5, i64 48
  store ptr %3, ptr %22, align 8
  %23 = load i32, ptr @proto_p1, align 4
  %24 = call ptr @proto_tree_add_item(ptr noundef %2, i32 noundef %23, ptr noundef %0, i32 noundef 0, i32 noundef -1, i32 noundef 0)
  %25 = load i32, ptr @ett_p1, align 4
  %26 = call ptr @proto_item_add_subtree(ptr noundef %24, i32 noundef %25)
  %27 = getelementptr inbounds nuw i8, ptr %1, i64 8
  %28 = load ptr, ptr %27, align 8
  call void @col_set_str(ptr noundef %28, i32 noundef 35, ptr noundef nonnull @.str.113)
  %29 = load ptr, ptr %27, align 8
  call void @col_clear(ptr noundef %29, i32 noundef 25)
  %30 = getelementptr inbounds nuw i8, ptr %3, i64 4
  %31 = load i32, ptr %30, align 4
  %32 = and i32 %31, -16777216
  switch i32 %32, label %36 [
    i32 285212672, label %38
    i32 553648128, label %33
    i32 822083584, label %34
    i32 318767104, label %35
  ]

33:                                               ; preds = %p1_initialize_content_globals.exit
  br label %38

34:                                               ; preds = %p1_initialize_content_globals.exit
  br label %38

35:                                               ; preds = %p1_initialize_content_globals.exit
  br label %38

36:                                               ; preds = %p1_initialize_content_globals.exit
  %37 = call ptr @proto_tree_add_expert(ptr noundef %26, ptr noundef %1, ptr noundef nonnull @ei_p1_unsupported_pdu, ptr noundef %0, i32 noundef 0, i32 noundef -1)
  br label %.sink.split

38:                                               ; preds = %p1_initialize_content_globals.exit, %35, %34, %33
  %.034 = phi ptr [ @dissect_p1_MTS_APDU, %35 ], [ @dissect_p1_MTABindError, %34 ], [ @dissect_p1_MTABindResult, %33 ], [ @dissect_p1_MTABindArgument, %p1_initialize_content_globals.exit ]
  %.033 = phi ptr [ @.str.114, %35 ], [ @.str.1928, %34 ], [ @.str.1927, %33 ], [ @.str.1926, %p1_initialize_content_globals.exit ]
  %.0.in = phi ptr [ @hf_p1_MTS_APDU_PDU, %35 ], [ @hf_p1_MTABindError_PDU, %34 ], [ @hf_p1_MTABindResult_PDU, %33 ], [ @hf_p1_MTABindArgument_PDU, %p1_initialize_content_globals.exit ]
  %.0 = load i32, ptr %.0.in, align 4
  %39 = load ptr, ptr %27, align 8
  call void @col_set_str(ptr noundef %39, i32 noundef 25, ptr noundef nonnull %.033)
  br label %40

40:                                               ; preds = %43, %38
  %.036 = phi i32 [ 0, %38 ], [ %44, %43 ]
  %41 = call i32 @tvb_reported_length_remaining(ptr noundef %0, i32 noundef %.036)
  %42 = icmp sgt i32 %41, 0
  br i1 %42, label %43, label %.loopexit

43:                                               ; preds = %40
  %44 = call i32 %.034(i1 noundef zeroext false, ptr noundef %0, i32 noundef %.036, ptr noundef nonnull %5, ptr noundef %26, i32 noundef %.0), !callees !8
  %45 = icmp eq i32 %44, %.036
  br i1 %45, label %46, label %40, !llvm.loop !9

46:                                               ; preds = %43
  %47 = call ptr @proto_tree_add_expert(ptr noundef %26, ptr noundef %1, ptr noundef nonnull @ei_p1_zero_pdu, ptr noundef %0, i32 noundef %.036, i32 noundef -1)
  br label %.loopexit

.loopexit:                                        ; preds = %40, %46
  %48 = load ptr, ptr %8, align 8
  %49 = icmp eq ptr %48, null
  br i1 %49, label %50, label %p1_initialize_content_globals.exit39

50:                                               ; preds = %.loopexit
  %51 = getelementptr inbounds nuw i8, ptr %5, i64 16
  %52 = load ptr, ptr %51, align 8
  %53 = getelementptr inbounds nuw i8, ptr %52, i64 408
  %54 = load ptr, ptr %53, align 8
  %55 = call noalias dereferenceable_or_null(32) ptr @wmem_alloc0(ptr noundef %54, i64 noundef 32) #6
  store ptr %55, ptr %8, align 8
  br label %p1_initialize_content_globals.exit39

p1_initialize_content_globals.exit39:             ; preds = %.loopexit, %50
  %56 = phi ptr [ %55, %50 ], [ %48, %.loopexit ]
  store ptr null, ptr %18, align 8
  store ptr null, ptr %19, align 8
  %57 = getelementptr inbounds nuw i8, ptr %56, i64 8
  store ptr null, ptr %57, align 8
  %58 = getelementptr inbounds nuw i8, ptr %56, i64 16
  store i8 0, ptr %58, align 8
  br label %.sink.split

.sink.split:                                      ; preds = %36, %p1_initialize_content_globals.exit39
  %59 = call i32 @tvb_captured_length(ptr noundef %0)
  br label %60

60:                                               ; preds = %.sink.split, %4
  %.035 = phi i32 [ 0, %4 ], [ %59, %.sink.split ]
  call void @llvm.lifetime.end.p0(i64 208, ptr nonnull %5) #5
  ret i32 %.035
}